target datalayout = "e-m:e-p270:32:32-p271:32:32-p272:64:64-i64:64-i128:128-f80:128-n8:16:32:64-S128"
target triple = "x86_64-pc-linux-gnu"

; Function Attrs: mustprogress nounwind uwtable
define i32 @ucnv_compareNames_77(ptr noundef %0, ptr noundef %1) #0 {
  %3 = alloca i32, align 4
  %4 = alloca ptr, align 8
  %5 = alloca ptr, align 8
  %6 = alloca i32, align 4
  %7 = alloca i8, align 1
  %8 = alloca i8, align 1
  %9 = alloca i8, align 1
  %10 = alloca i8, align 1
  %11 = alloca i8, align 1
  %12 = alloca i8, align 1
  %13 = alloca i32, align 4
  store ptr %0, ptr %4, align 8, !tbaa !3
  store ptr %1, ptr %5, align 8, !tbaa !3
  call void @llvm.lifetime.start.p0(i64 4, ptr %6) #12
  call void @llvm.lifetime.start.p0(i64 1, ptr %7) #12
  call void @llvm.lifetime.start.p0(i64 1, ptr %8) #12
  call void @llvm.lifetime.start.p0(i64 1, ptr %9) #12
  call void @llvm.lifetime.start.p0(i64 1, ptr %10) #12
  call void @llvm.lifetime.start.p0(i64 1, ptr %11) #12
  store i8 0, ptr %11, align 1, !tbaa !8
  call void @llvm.lifetime.start.p0(i64 1, ptr %12) #12
  store i8 0, ptr %12, align 1, !tbaa !8
  br label %14

14:                                               ; preds = %138, %2
  br label %15

15:                                               ; preds = %60, %35, %14
  %16 = load ptr, ptr %4, align 8, !tbaa !3
  %17 = getelementptr inbounds nuw i8, ptr %16, i32 1
  store ptr %17, ptr %4, align 8, !tbaa !3
  %18 = load i8, ptr %16, align 1, !tbaa !8
  store i8 %18, ptr %9, align 1, !tbaa !8
  %19 = sext i8 %18 to i32
  %20 = icmp ne i32 %19, 0
  br i1 %20, label %21, label %67

21:                                               ; preds = %15
  %22 = load i8, ptr %9, align 1, !tbaa !8
  %23 = sext i8 %22 to i32
  %24 = icmp sge i32 %23, 0
  br i1 %24, label %25, label %30

25:                                               ; preds = %21
  %26 = load i8, ptr %9, align 1, !tbaa !8
  %27 = zext i8 %26 to i64
  %28 = getelementptr inbounds nuw [128 x i8], ptr @_ZL10asciiTypes, i64 0, i64 %27
  %29 = load i8, ptr %28, align 1, !tbaa !8
  br label %31

30:                                               ; preds = %21
  br label %31

31:                                               ; preds = %30, %25
  %32 = phi i8 [ %29, %25 ], [ 0, %30 ]
  store i8 %32, ptr %7, align 1, !tbaa !8
  %33 = load i8, ptr %7, align 1, !tbaa !8
  %34 = zext i8 %33 to i32
  switch i32 %34, label %64 [
    i32 0, label %35
    i32 1, label %36
    i32 2, label %63
  ]

35:                                               ; preds = %31
  store i8 0, ptr %11, align 1, !tbaa !8
  br label %15, !llvm.loop !12

36:                                               ; preds = %31
  %37 = load i8, ptr %11, align 1, !tbaa !8
  %38 = icmp ne i8 %37, 0
  br i1 %38, label %62, label %39

39:                                               ; preds = %36
  %40 = load ptr, ptr %4, align 8, !tbaa !3
  %41 = load i8, ptr %40, align 1, !tbaa !8
  %42 = sext i8 %41 to i32
  %43 = icmp sge i32 %42, 0
  br i1 %43, label %44, label %50

44:                                               ; preds = %39
  %45 = load ptr, ptr %4, align 8, !tbaa !3
  %46 = load i8, ptr %45, align 1, !tbaa !8
  %47 = zext i8 %46 to i64
  %48 = getelementptr inbounds nuw [128 x i8], ptr @_ZL10asciiTypes, i64 0, i64 %47
  %49 = load i8, ptr %48, align 1, !tbaa !8
  br label %51

50:                                               ; preds = %39
  br label %51

51:                                               ; preds = %50, %44
  %52 = phi i8 [ %49, %44 ], [ 0, %50 ]
  store i8 %52, ptr %8, align 1, !tbaa !8
  %53 = load i8, ptr %8, align 1, !tbaa !8
  %54 = zext i8 %53 to i32
  %55 = icmp eq i32 %54, 1
  br i1 %55, label %60, label %56

56:                                               ; preds = %51
  %57 = load i8, ptr %8, align 1, !tbaa !8
  %58 = zext i8 %57 to i32
  %59 = icmp eq i32 %58, 2
  br i1 %59, label %60, label %61

60:                                               ; preds = %56, %51
  br label %15, !llvm.loop !12

61:                                               ; preds = %56
  br label %62

62:                                               ; preds = %61, %36
  br label %66

63:                                               ; preds = %31
  store i8 1, ptr %11, align 1, !tbaa !8
  br label %66

64:                                               ; preds = %31
  %65 = load i8, ptr %7, align 1, !tbaa !8
  store i8 %65, ptr %9, align 1, !tbaa !8
  store i8 0, ptr %11, align 1, !tbaa !8
  br label %66

66:                                               ; preds = %64, %63, %62
  br label %67

67:                                               ; preds = %66, %15
  br label %68

68:                                               ; preds = %113, %88, %67
  %69 = load ptr, ptr %5, align 8, !tbaa !3
  %70 = getelementptr inbounds nuw i8, ptr %69, i32 1
  store ptr %70, ptr %5, align 8, !tbaa !3
  %71 = load i8, ptr %69, align 1, !tbaa !8
  store i8 %71, ptr %10, align 1, !tbaa !8
  %72 = sext i8 %71 to i32
  %73 = icmp ne i32 %72, 0
  br i1 %73, label %74, label %120

74:                                               ; preds = %68
  %75 = load i8, ptr %10, align 1, !tbaa !8
  %76 = sext i8 %75 to i32
  %77 = icmp sge i32 %76, 0
  br i1 %77, label %78, label %83

78:                                               ; preds = %74
  %79 = load i8, ptr %10, align 1, !tbaa !8
  %80 = zext i8 %79 to i64
  %81 = getelementptr inbounds nuw [128 x i8], ptr @_ZL10asciiTypes, i64 0, i64 %80
  %82 = load i8, ptr %81, align 1, !tbaa !8
  br label %84

83:                                               ; preds = %74
  br label %84

84:                                               ; preds = %83, %78
  %85 = phi i8 [ %82, %78 ], [ 0, %83 ]
  store i8 %85, ptr %7, align 1, !tbaa !8
  %86 = load i8, ptr %7, align 1, !tbaa !8
  %87 = zext i8 %86 to i32
  switch i32 %87, label %117 [
    i32 0, label %88
    i32 1, label %89
    i32 2, label %116
  ]

88:                                               ; preds = %84
  store i8 0, ptr %12, align 1, !tbaa !8
  br label %68, !llvm.loop !13

89:                                               ; preds = %84
  %90 = load i8, ptr %12, align 1, !tbaa !8
  %91 = icmp ne i8 %90, 0
  br i1 %91, label %115, label %92

92:                                               ; preds = %89
  %93 = load ptr, ptr %5, align 8, !tbaa !3
  %94 = load i8, ptr %93, align 1, !tbaa !8
  %95 = sext i8 %94 to i32
  %96 = icmp sge i32 %95, 0
  br i1 %96, label %97, label %103

97:                                               ; preds = %92
  %98 = load ptr, ptr %5, align 8, !tbaa !3
  %99 = load i8, ptr %98, align 1, !tbaa !8
  %100 = zext i8 %99 to i64
  %101 = getelementptr inbounds nuw [128 x i8], ptr @_ZL10asciiTypes, i64 0, i64 %100
  %102 = load i8, ptr %101, align 1, !tbaa !8
  br label %104

103:                                              ; preds = %92
  br label %104

104:                                              ; preds = %103, %97
  %105 = phi i8 [ %102, %97 ], [ 0, %103 ]
  store i8 %105, ptr %8, align 1, !tbaa !8
  %106 = load i8, ptr %8, align 1, !tbaa !8
  %107 = zext i8 %106 to i32
  %108 = icmp eq i32 %107, 1
  br i1 %108, label %113, label %109

109:                                              ; preds = %104
  %110 = load i8, ptr %8, align 1, !tbaa !8
  %111 = zext i8 %110 to i32
  %112 = icmp eq i32 %111, 2
  br i1 %112, label %113, label %114

113:                                              ; preds = %109, %104
  br label %68, !llvm.loop !13

114:                                              ; preds = %109
  br label %115

115:                                              ; preds = %114, %89
  br label %119

116:                                              ; preds = %84
  store i8 1, ptr %12, align 1, !tbaa !8
  br label %119

117:                                              ; preds = %84
  %118 = load i8, ptr %7, align 1, !tbaa !8
  store i8 %118, ptr %10, align 1, !tbaa !8
  store i8 0, ptr %12, align 1, !tbaa !8
  br label %119

119:                                              ; preds = %117, %116, %115
  br label %120

120:                                              ; preds = %119, %68
  %121 = load i8, ptr %9, align 1, !tbaa !8
  %122 = sext i8 %121 to i32
  %123 = load i8, ptr %10, align 1, !tbaa !8
  %124 = sext i8 %123 to i32
  %125 = or i32 %122, %124
  %126 = icmp eq i32 %125, 0
  br i1 %126, label %127, label %128

127:                                              ; preds = %120
  store i32 0, ptr %3, align 4
  store i32 1, ptr %13, align 4
  br label %139

128:                                              ; preds = %120
  %129 = load i8, ptr %9, align 1, !tbaa !8
  %130 = zext i8 %129 to i32
  %131 = load i8, ptr %10, align 1, !tbaa !8
  %132 = zext i8 %131 to i32
  %133 = sub nsw i32 %130, %132
  store i32 %133, ptr %6, align 4, !tbaa !14
  %134 = load i32, ptr %6, align 4, !tbaa !14
  %135 = icmp ne i32 %134, 0
  br i1 %135, label %136, label %138

136:                                              ; preds = %128
  %137 = load i32, ptr %6, align 4, !tbaa !14
  store i32 %137, ptr %3, align 4
  store i32 1, ptr %13, align 4
  br label %139

138:                                              ; preds = %128
  br label %14, !llvm.loop !16

139:                                              ; preds = %136, %127
  call void @llvm.lifetime.end.p0(i64 1, ptr %12) #12
  call void @llvm.lifetime.end.p0(i64 1, ptr %11) #12
  call void @llvm.lifetime.end.p0(i64 1, ptr %10) #12
  call void @llvm.lifetime.end.p0(i64 1, ptr %9) #12
  call void @llvm.lifetime.end.p0(i64 1, ptr %8) #12
  call void @llvm.lifetime.end.p0(i64 1, ptr %7) #12
  call void @llvm.lifetime.end.p0(i64 4, ptr %6) #12
  %140 = load i32, ptr %3, align 4
  ret i32 %140
}