; Function Attrs: mustprogress nofree norecurse nosync nounwind willreturn memory(argmem: read) uwtable
define range(i32 -255, 256) i32 @ucnv_compareNames_77(ptr noundef readonly captures(none) %0, ptr noundef readonly captures(none) %1) local_unnamed_addr #2 {
  br label %3

3:                                                ; preds = %52, %2
  %.039 = phi ptr [ %0, %2 ], [ %26, %52 ]
  %.037 = phi ptr [ %1, %2 ], [ %49, %52 ]
  %.031 = phi i8 [ 0, %2 ], [ %.233, %52 ]
  %.0 = phi i8 [ 0, %2 ], [ %.2, %52 ]
  %4 = getelementptr inbounds nuw i8, ptr %.039, i64 1
  %5 = load i8, ptr %.039, align 1, !tbaa !3
  %.not56 = icmp eq i8 %5, 0
  br i1 %.not56, label %.critedge, label %.lr.ph.preheader

.lr.ph.preheader:                                 ; preds = %3
  %6 = icmp eq i8 %.031, 0
  br label %.lr.ph

.lr.ph:                                           ; preds = %.lr.ph.preheader, %.backedge50
  %7 = phi i8 [ %24, %.backedge50 ], [ %5, %.lr.ph.preheader ]
  %8 = phi ptr [ %25, %.backedge50 ], [ %4, %.lr.ph.preheader ]
  %.13257 = phi i1 [ true, %.backedge50 ], [ %6, %.lr.ph.preheader ]
  %9 = icmp sgt i8 %7, -1
  br i1 %9, label %10, label %..backedge50_crit_edge

10:                                               ; preds = %.lr.ph
  %11 = zext nneg i8 %7 to i64
  %12 = getelementptr inbounds nuw [128 x i8], ptr @_ZL10asciiTypes, i64 0, i64 %11
  %13 = load i8, ptr %12, align 1, !tbaa !3
  switch i8 %13, label %.critedge [
    i8 0, label %..backedge50_crit_edge
    i8 1, label %14
    i8 2, label %.critedge.loopexit
  ]

..backedge50_crit_edge:                           ; preds = %.lr.ph, %10
  %.pre = load i8, ptr %8, align 1, !tbaa !3
  br label %.backedge50

14:                                               ; preds = %10
  br i1 %.13257, label %15, label %.critedge

15:                                               ; preds = %14
  %16 = load i8, ptr %8, align 1, !tbaa !3
  %17 = icmp sgt i8 %16, -1
  br i1 %17, label %18, label %.critedge

18:                                               ; preds = %15
  %19 = zext nneg i8 %16 to i64
  %20 = getelementptr inbounds nuw [128 x i8], ptr @_ZL10asciiTypes, i64 0, i64 %19
  %21 = load i8, ptr %20, align 1, !tbaa !3
  %22 = add i8 %21, -1
  %23 = icmp ult i8 %22, 2
  br i1 %23, label %.backedge50, label %.critedge

.backedge50:                                      ; preds = %..backedge50_crit_edge, %18
  %24 = phi i8 [ %.pre, %..backedge50_crit_edge ], [ %16, %18 ]
  %25 = getelementptr inbounds nuw i8, ptr %8, i64 1
  %.not = icmp eq i8 %24, 0
  br i1 %.not, label %.critedge, label %.lr.ph, !llvm.loop !9

.critedge.loopexit:                               ; preds = %10
  br label %.critedge

.critedge:                                        ; preds = %.backedge50, %14, %18, %15, %10, %.critedge.loopexit, %3
  %26 = phi ptr [ %4, %3 ], [ %8, %10 ], [ %25, %.backedge50 ], [ %8, %14 ], [ %8, %18 ], [ %8, %15 ], [ %8, %.critedge.loopexit ]
  %.035 = phi i8 [ 0, %3 ], [ %13, %10 ], [ 0, %.backedge50 ], [ %7, %14 ], [ %7, %18 ], [ %7, %15 ], [ %7, %.critedge.loopexit ]
  %.233 = phi i8 [ %.031, %3 ], [ 0, %10 ], [ 0, %.backedge50 ], [ 1, %14 ], [ 0, %18 ], [ 0, %15 ], [ 1, %.critedge.loopexit ]
  %27 = getelementptr inbounds nuw i8, ptr %.037, i64 1
  %28 = load i8, ptr %.037, align 1, !tbaa !3
  %.not4576 = icmp eq i8 %28, 0
  br i1 %.not4576, label %.critedge49, label %.lr.ph78.preheader

.lr.ph78.preheader:                               ; preds = %.critedge
  %29 = icmp eq i8 %.0, 0
  br label %.lr.ph78

.lr.ph78:                                         ; preds = %.lr.ph78.preheader, %.backedge
  %30 = phi i8 [ %47, %.backedge ], [ %28, %.lr.ph78.preheader ]
  %31 = phi ptr [ %48, %.backedge ], [ %27, %.lr.ph78.preheader ]
  %.177 = phi i1 [ true, %.backedge ], [ %29, %.lr.ph78.preheader ]
  %32 = icmp sgt i8 %30, -1
  br i1 %32, label %33, label %..backedge_crit_edge

33:                                               ; preds = %.lr.ph78
  %34 = zext nneg i8 %30 to i64
  %35 = getelementptr inbounds nuw [128 x i8], ptr @_ZL10asciiTypes, i64 0, i64 %34
  %36 = load i8, ptr %35, align 1, !tbaa !3
  switch i8 %36, label %.critedge49 [
    i8 0, label %..backedge_crit_edge
    i8 1, label %37
    i8 2, label %.critedge49.loopexit
  ]

..backedge_crit_edge:                             ; preds = %.lr.ph78, %33
  %.pre107 = load i8, ptr %31, align 1, !tbaa !3
  br label %.backedge

37:                                               ; preds = %33
  br i1 %.177, label %38, label %.critedge49

38:                                               ; preds = %37
  %39 = load i8, ptr %31, align 1, !tbaa !3
  %40 = icmp sgt i8 %39, -1
  br i1 %40, label %41, label %.critedge49

41:                                               ; preds = %38
  %42 = zext nneg i8 %39 to i64
  %43 = getelementptr inbounds nuw [128 x i8], ptr @_ZL10asciiTypes, i64 0, i64 %42
  %44 = load i8, ptr %43, align 1, !tbaa !3
  %45 = add i8 %44, -1
  %46 = icmp ult i8 %45, 2
  br i1 %46, label %.backedge, label %.critedge49

.backedge:                                        ; preds = %..backedge_crit_edge, %41
  %47 = phi i8 [ %.pre107, %..backedge_crit_edge ], [ %39, %41 ]
  %48 = getelementptr inbounds nuw i8, ptr %31, i64 1
  %.not45 = icmp eq i8 %47, 0
  br i1 %.not45, label %.critedge49, label %.lr.ph78, !llvm.loop !10

.critedge49.loopexit:                             ; preds = %33
  br label %.critedge49

.critedge49:                                      ; preds = %.backedge, %37, %41, %38, %33, %.critedge49.loopexit, %.critedge
  %49 = phi ptr [ %27, %.critedge ], [ %31, %33 ], [ %48, %.backedge ], [ %31, %37 ], [ %31, %41 ], [ %31, %38 ], [ %31, %.critedge49.loopexit ]
  %.034 = phi i8 [ 0, %.critedge ], [ %36, %33 ], [ 0, %.backedge ], [ %30, %37 ], [ %30, %41 ], [ %30, %38 ], [ %30, %.critedge49.loopexit ]
  %.2 = phi i8 [ %.0, %.critedge ], [ 0, %33 ], [ 0, %.backedge ], [ 1, %37 ], [ 0, %41 ], [ 0, %38 ], [ 1, %.critedge49.loopexit ]
  %50 = or i8 %.034, %.035
  %51 = icmp eq i8 %50, 0
  br i1 %51, label %56, label %52

52:                                               ; preds = %.critedge49
  %53 = zext i8 %.035 to i32
  %54 = zext i8 %.034 to i32
  %55 = sub nsw i32 %53, %54
  %.not47 = icmp eq i32 %55, 0
  br i1 %.not47, label %3, label %56, !llvm.loop !11

56:                                               ; preds = %52, %.critedge49
  %.036 = phi i32 [ 0, %.critedge49 ], [ %55, %52 ]
  ret i32 %.036
}